target datalayout = "e-m:e-p270:32:32-p271:32:32-p272:64:64-i64:64-i128:128-f80:128-n8:16:32:64-S128"
target triple = "x86_64-pc-linux-gnu"

%"class.Eigen::Transform" = type { %"class.Eigen::Matrix" }
%"class.Eigen::Matrix" = type { %"class.Eigen::PlainObjectBase" }
%"class.Eigen::PlainObjectBase" = type { %"class.Eigen::DenseStorage" }
%"class.Eigen::DenseStorage" = type { %"struct.Eigen::internal::plain_array" }
%"struct.Eigen::internal::plain_array" = type { [16 x double] }
%"struct.g2o::HyperGraph::HyperGraphElement" = type { ptr }
%"class.g2o::Cache" = type { %"struct.g2o::HyperGraph::HyperGraphElement", i8, %"class.std::vector", %"class.std::vector.46", ptr }
%"class.std::vector" = type { %"struct.std::_Vector_base" }
%"struct.std::_Vector_base" = type { %"struct.std::_Vector_base<g2o::Parameter *, std::allocator<g2o::Parameter *>>::_Vector_impl" }
%"struct.std::_Vector_base<g2o::Parameter *, std::allocator<g2o::Parameter *>>::_Vector_impl" = type { %"struct.std::_Vector_base<g2o::Parameter *, std::allocator<g2o::Parameter *>>::_Vector_impl_data" }
%"struct.std::_Vector_base<g2o::Parameter *, std::allocator<g2o::Parameter *>>::_Vector_impl_data" = type { ptr, ptr, ptr }
%"class.std::vector.46" = type { %"struct.std::_Vector_base.47" }
%"struct.std::_Vector_base.47" = type { %"struct.std::_Vector_base<g2o::Cache *, std::allocator<g2o::Cache *>>::_Vector_impl" }
%"struct.std::_Vector_base<g2o::Cache *, std::allocator<g2o::Cache *>>::_Vector_impl" = type { %"struct.std::_Vector_base<g2o::Cache *, std::allocator<g2o::Cache *>>::_Vector_impl_data" }
%"struct.std::_Vector_base<g2o::Cache *, std::allocator<g2o::Cache *>>::_Vector_impl_data" = type { ptr, ptr, ptr }
%"class.g2o::CacheCamera" = type { %"class.g2o::CacheSE3Offset", %"class.Eigen::Transform.51", ptr, [8 x i8] }
%"class.g2o::CacheSE3Offset" = type { %"class.g2o::Cache", ptr, %"class.Eigen::Transform", %"class.Eigen::Transform", %"class.Eigen::Transform" }
%"class.Eigen::Transform.51" = type { %"class.Eigen::Matrix" }

@_ZTIN3g2o9ParameterE = linkonce_odr constant { ptr, ptr, ptr } { ptr getelementptr inbounds (ptr, ptr @_ZTVN10__cxxabiv120__si_class_type_infoE, i64 2), ptr @_ZTSN3g2o9ParameterE, ptr @_ZTIN3g2o10HyperGraph17HyperGraphElementE }, comdat, align 8
@_ZTIN3g2o15ParameterCameraE = constant { ptr, ptr, ptr } { ptr getelementptr inbounds (ptr, ptr @_ZTVN10__cxxabiv120__si_class_type_infoE, i64 2), ptr @_ZTSN3g2o15ParameterCameraE, ptr @_ZTIN3g2o18ParameterSE3OffsetE }, align 8

; Function Attrs: mustprogress nounwind uwtable
define linkonce_odr noundef nonnull align 8 dereferenceable(8) ptr @_ZNSt6vectorIPN3g2o9ParameterESaIS2_EEixEm(ptr noundef nonnull align 8 dereferenceable(24) %0, i64 noundef %1) #4 comdat align 2 {
  %3 = alloca ptr, align 8
  %4 = alloca i64, align 8
  store ptr %0, ptr %3, align 8
  store i64 %1, ptr %4, align 8
  %5 = load ptr, ptr %3, align 8
  %6 = getelementptr inbounds nuw %"struct.std::_Vector_base", ptr %5, i32 0, i32 0
  %7 = getelementptr inbounds nuw %"struct.std::_Vector_base<g2o::Parameter *, std::allocator<g2o::Parameter *>>::_Vector_impl_data", ptr %6, i32 0, i32 0
  %8 = load ptr, ptr %7, align 8
  %9 = load i64, ptr %4, align 8
  %10 = getelementptr inbounds ptr, ptr %8, i64 %9
  ret ptr %10
}

; Function Attrs: mustprogress uwtable
define noundef zeroext i1 @_ZN3g2o11CacheCamera19resolveDependenciesEv(ptr noundef nonnull align 16 dereferenceable(600) %0) unnamed_addr #5 align 2 {
  %2 = alloca i1, align 1
  %3 = alloca ptr, align 8
  store ptr %0, ptr %3, align 8
  %4 = load ptr, ptr %3, align 8
  %5 = call noundef zeroext i1 @_ZN3g2o14CacheSE3Offset19resolveDependenciesEv(ptr noundef nonnull align 16 dereferenceable(464) %4)
  br i1 %5, label %7, label %6

6:                                                ; preds = %1
  store i1 false, ptr %2, align 1
  br label %21

7:                                                ; preds = %1
  %8 = getelementptr inbounds nuw %"class.g2o::Cache", ptr %4, i32 0, i32 2
  %9 = call noundef nonnull align 8 dereferenceable(8) ptr @_ZNSt6vectorIPN3g2o9ParameterESaIS2_EEixEm(ptr noundef nonnull align 8 dereferenceable(24) %8, i64 noundef 0) #3
  %10 = load ptr, ptr %9, align 8
  %11 = icmp eq ptr %10, null
  br i1 %11, label %14, label %12

12:                                               ; preds = %7
  %13 = call ptr @__dynamic_cast(ptr %10, ptr @_ZTIN3g2o9ParameterE, ptr @_ZTIN3g2o15ParameterCameraE, i64 0) #3
  br label %15

14:                                               ; preds = %7
  br label %15

15:                                               ; preds = %14, %12
  %16 = phi ptr [ %13, %12 ], [ null, %14 ]
  %17 = getelementptr inbounds nuw %"class.g2o::CacheCamera", ptr %4, i32 0, i32 2
  store ptr %16, ptr %17, align 16
  %18 = getelementptr inbounds nuw %"class.g2o::CacheCamera", ptr %4, i32 0, i32 2
  %19 = load ptr, ptr %18, align 16
  %20 = icmp ne ptr %19, null
  store i1 %20, ptr %2, align 1
  br label %21

21:                                               ; preds = %15, %6
  %22 = load i1, ptr %2, align 1
  ret i1 %22
}