; Function Attrs: mustprogress uwtable
define noundef zeroext i1 @_ZN3g2o11CacheCamera19resolveDependenciesEv(ptr noundef nonnull align 16 dereferenceable(600) %0) unnamed_addr #5 align 2 {
  %2 = tail call noundef zeroext i1 @_ZN3g2o14CacheSE3Offset19resolveDependenciesEv(ptr noundef nonnull align 16 dereferenceable(464) %0)
  br i1 %2, label %3, label %14

3:                                                ; preds = %1
  %4 = getelementptr inbounds nuw i8, ptr %0, i64 16
  %5 = load ptr, ptr %4, align 16
  %6 = load ptr, ptr %5, align 8
  %7 = icmp eq ptr %6, null
  br i1 %7, label %10, label %8

8:                                                ; preds = %3
  %9 = tail call ptr @__dynamic_cast(ptr nonnull %6, ptr nonnull @_ZTIN3g2o9ParameterE, ptr nonnull @_ZTIN3g2o15ParameterCameraE, i64 0) #13
  br label %10

10:                                               ; preds = %3, %8
  %11 = phi ptr [ %9, %8 ], [ null, %3 ]
  %12 = getelementptr inbounds nuw i8, ptr %0, i64 592
  store ptr %11, ptr %12, align 16
  %13 = icmp ne ptr %11, null
  br label %14

14:                                               ; preds = %1, %10
  %.0 = phi i1 [ %13, %10 ], [ false, %1 ]
  ret i1 %.0
}